target datalayout = "e-m:e-p270:32:32-p271:32:32-p272:64:64-i64:64-i128:128-f80:128-n8:16:32:64-S128"
target triple = "x86_64-pc-linux-gnu"

%struct.pmix_object_t = type { %union.pthread_mutex_t, ptr, i32, %struct.pmix_tma }
%union.pthread_mutex_t = type { %struct.__pthread_mutex_s }
%struct.__pthread_mutex_s = type { i32, i32, i32, i32, i32, i16, i16, %struct.__pthread_internal_list }
%struct.__pthread_internal_list = type { ptr, ptr }
%struct.pmix_tma = type { ptr, ptr, ptr, ptr, ptr, ptr, ptr, ptr }
%struct.pmix_proc = type { [256 x i8], i32 }
%struct.mylock_t = type { %struct.pmix_lock_t, i32 }
%struct.pmix_lock_t = type { i32, %struct.pmix_mutex_t, %union.pthread_cond_t, i8 }
%struct.pmix_mutex_t = type { %struct.pmix_object_t, %union.pthread_mutex_t }
%union.pthread_cond_t = type { %struct.__pthread_cond_s }
%struct.__pthread_cond_s = type { %union.__atomic_wide_counter, %union.__atomic_wide_counter, [2 x i32], [2 x i32], i32, i32, [2 x i32] }
%union.__atomic_wide_counter = type { i64 }

@stderr = external global ptr, align 8
@myproc = internal global %struct.pmix_proc zeroinitializer, align 4
@.str.66 = private unnamed_addr constant [72 x i8] c"Client %s:%d EVENT HANDLER REGISTRATION FAILED WITH STATUS %d, ref=%lu\0A\00", align 1

; Function Attrs: inlinehint nounwind uwtable
define internal void @pmix_mutex_unlock(ptr noundef %0) #4 {
  %2 = alloca ptr, align 8
  store ptr %0, ptr %2, align 8, !tbaa !90
  %3 = load ptr, ptr %2, align 8, !tbaa !90
  %4 = getelementptr inbounds nuw %struct.pmix_mutex_t, ptr %3, i32 0, i32 1
  %5 = call i32 @pthread_mutex_unlock(ptr noundef %4) #9
  ret void
}

; Function Attrs: inlinehint nounwind uwtable
define internal void @pmix_atomic_wmb() #4 {
  fence release
  ret void
}

; Function Attrs: inlinehint nounwind uwtable
define internal void @pmix_mutex_lock(ptr noundef %0) #4 {
  %2 = alloca ptr, align 8
  store ptr %0, ptr %2, align 8, !tbaa !90
  %3 = load ptr, ptr %2, align 8, !tbaa !90
  %4 = getelementptr inbounds nuw %struct.pmix_mutex_t, ptr %3, i32 0, i32 1
  %5 = call i32 @pthread_mutex_lock(ptr noundef %4) #9
  ret void
}

; Function Attrs: nounwind uwtable
define internal void @evhandler_reg_callbk(i32 noundef %0, i64 noundef %1, ptr noundef %2) #0 {
  %4 = alloca i32, align 4
  %5 = alloca i64, align 8
  %6 = alloca ptr, align 8
  %7 = alloca ptr, align 8
  store i32 %0, ptr %4, align 4, !tbaa !4
  store i64 %1, ptr %5, align 8, !tbaa !31
  store ptr %2, ptr %6, align 8, !tbaa !28
  call void @llvm.lifetime.start.p0(i64 8, ptr %7) #9
  %8 = load ptr, ptr %6, align 8, !tbaa !28
  store ptr %8, ptr %7, align 8, !tbaa !28
  %9 = load i32, ptr %4, align 4, !tbaa !4
  %10 = icmp ne i32 0, %9
  br i1 %10, label %11, label %17

11:                                               ; preds = %3
  %12 = load ptr, ptr @stderr, align 8, !tbaa !13
  %13 = load i32, ptr getelementptr inbounds nuw (%struct.pmix_proc, ptr @myproc, i32 0, i32 1), align 4, !tbaa !88
  %14 = load i32, ptr %4, align 4, !tbaa !4
  %15 = load i64, ptr %5, align 8, !tbaa !31
  %16 = call i32 (ptr, ptr, ...) @fprintf(ptr noundef %12, ptr noundef @.str.66, ptr noundef @myproc, i32 noundef %13, i32 noundef %14, i64 noundef %15) #9
  br label %17

17:                                               ; preds = %11, %3
  %18 = load i32, ptr %4, align 4, !tbaa !4
  %19 = load ptr, ptr %7, align 8, !tbaa !28
  %20 = getelementptr inbounds nuw %struct.mylock_t, ptr %19, i32 0, i32 1
  store i32 %18, ptr %20, align 8, !tbaa !49
  br label %21

21:                                               ; preds = %17
  %22 = load ptr, ptr %7, align 8, !tbaa !28
  %23 = getelementptr inbounds nuw %struct.mylock_t, ptr %22, i32 0, i32 0
  %24 = getelementptr inbounds nuw %struct.pmix_lock_t, ptr %23, i32 0, i32 1
  call void @pmix_mutex_lock(ptr noundef %24)
  %25 = load ptr, ptr %7, align 8, !tbaa !28
  %26 = getelementptr inbounds nuw %struct.mylock_t, ptr %25, i32 0, i32 0
  %27 = getelementptr inbounds nuw %struct.pmix_lock_t, ptr %26, i32 0, i32 3
  store volatile i8 0, ptr %27, align 8, !tbaa !44
  call void @pmix_atomic_wmb()
  %28 = load ptr, ptr %7, align 8, !tbaa !28
  %29 = getelementptr inbounds nuw %struct.mylock_t, ptr %28, i32 0, i32 0
  %30 = getelementptr inbounds nuw %struct.pmix_lock_t, ptr %29, i32 0, i32 2
  %31 = call i32 @pthread_cond_broadcast(ptr noundef %30) #9
  %32 = load ptr, ptr %7, align 8, !tbaa !28
  %33 = getelementptr inbounds nuw %struct.mylock_t, ptr %32, i32 0, i32 0
  %34 = getelementptr inbounds nuw %struct.pmix_lock_t, ptr %33, i32 0, i32 1
  call void @pmix_mutex_unlock(ptr noundef %34)
  br label %35

35:                                               ; preds = %21
  br label %36

36:                                               ; preds = %35
  call void @llvm.lifetime.end.p0(i64 8, ptr %7) #9
  ret void
}