; Function Attrs: nounwind uwtable
define internal void @evhandler_reg_callbk(i32 noundef %0, i64 noundef %1, ptr noundef initializes((224, 228)) %2) #0 {
  %.not = icmp eq i32 %0, 0
  br i1 %.not, label %8, label %4

4:                                                ; preds = %3
  %5 = load ptr, ptr @stderr, align 8, !tbaa !11
  %6 = load i32, ptr getelementptr inbounds nuw (i8, ptr @myproc, i64 256), align 4, !tbaa !70
  %7 = tail call i32 (ptr, ptr, ...) @fprintf(ptr noundef %5, ptr noundef nonnull @.str.66, ptr noundef nonnull @myproc, i32 noundef %6, i32 noundef %0, i64 noundef %1) #14
  br label %8

8:                                                ; preds = %4, %3
  %9 = getelementptr inbounds nuw i8, ptr %2, i64 224
  store i32 %0, ptr %9, align 8, !tbaa !48
  %10 = getelementptr inbounds nuw i8, ptr %2, i64 128
  %11 = tail call i32 @pthread_mutex_lock(ptr noundef nonnull %10) #13
  %12 = getelementptr inbounds nuw i8, ptr %2, i64 216
  store volatile i8 0, ptr %12, align 8, !tbaa !40
  fence release
  %13 = getelementptr inbounds nuw i8, ptr %2, i64 168
  %14 = tail call i32 @pthread_cond_broadcast(ptr noundef nonnull %13) #13
  %15 = tail call i32 @pthread_mutex_unlock(ptr noundef nonnull %10) #13
  ret void
}